target datalayout = "e-m:e-p270:32:32-p271:32:32-p272:64:64-i64:64-i128:128-f80:128-n8:16:32:64-S128"
target triple = "x86_64-pc-linux-gnu"

; Function Attrs: nounwind uwtable
define internal i32 @cmpItem(ptr noundef %0, ptr noundef %1) #0 {
  %3 = alloca i32, align 4
  %4 = alloca ptr, align 8
  %5 = alloca ptr, align 8
  %6 = alloca ptr, align 8
  %7 = alloca ptr, align 8
  %8 = alloca i32, align 4
  store ptr %0, ptr %4, align 8, !tbaa !18
  store ptr %1, ptr %5, align 8, !tbaa !18
  call void @llvm.lifetime.start.p0(i64 8, ptr %6) #12
  %9 = load ptr, ptr %4, align 8, !tbaa !18
  store ptr %9, ptr %6, align 8, !tbaa !34
  call void @llvm.lifetime.start.p0(i64 8, ptr %7) #12
  %10 = load ptr, ptr %5, align 8, !tbaa !18
  store ptr %10, ptr %7, align 8, !tbaa !34
  %11 = load ptr, ptr %6, align 8, !tbaa !34
  %12 = getelementptr inbounds i32, ptr %11, i64 0
  %13 = load i32, ptr %12, align 4, !tbaa !33
  %14 = load ptr, ptr %7, align 8, !tbaa !34
  %15 = getelementptr inbounds i32, ptr %14, i64 0
  %16 = load i32, ptr %15, align 4, !tbaa !33
  %17 = icmp slt i32 %13, %16
  br i1 %17, label %18, label %19

18:                                               ; preds = %2
  store i32 -1, ptr %3, align 4
  store i32 1, ptr %8, align 4
  br label %47

19:                                               ; preds = %2
  %20 = load ptr, ptr %6, align 8, !tbaa !34
  %21 = getelementptr inbounds i32, ptr %20, i64 0
  %22 = load i32, ptr %21, align 4, !tbaa !33
  %23 = load ptr, ptr %7, align 8, !tbaa !34
  %24 = getelementptr inbounds i32, ptr %23, i64 0
  %25 = load i32, ptr %24, align 4, !tbaa !33
  %26 = icmp sgt i32 %22, %25
  br i1 %26, label %27, label %28

27:                                               ; preds = %19
  store i32 1, ptr %3, align 4
  store i32 1, ptr %8, align 4
  br label %47

28:                                               ; preds = %19
  %29 = load ptr, ptr %6, align 8, !tbaa !34
  %30 = getelementptr inbounds i32, ptr %29, i64 1
  %31 = load i32, ptr %30, align 4, !tbaa !33
  %32 = load ptr, ptr %7, align 8, !tbaa !34
  %33 = getelementptr inbounds i32, ptr %32, i64 1
  %34 = load i32, ptr %33, align 4, !tbaa !33
  %35 = icmp slt i32 %31, %34
  br i1 %35, label %36, label %37

36:                                               ; preds = %28
  store i32 -1, ptr %3, align 4
  store i32 1, ptr %8, align 4
  br label %47

37:                                               ; preds = %28
  %38 = load ptr, ptr %6, align 8, !tbaa !34
  %39 = getelementptr inbounds i32, ptr %38, i64 1
  %40 = load i32, ptr %39, align 4, !tbaa !33
  %41 = load ptr, ptr %7, align 8, !tbaa !34
  %42 = getelementptr inbounds i32, ptr %41, i64 1
  %43 = load i32, ptr %42, align 4, !tbaa !33
  %44 = icmp sgt i32 %40, %43
  br i1 %44, label %45, label %46

45:                                               ; preds = %37
  store i32 1, ptr %3, align 4
  store i32 1, ptr %8, align 4
  br label %47

46:                                               ; preds = %37
  store i32 0, ptr %3, align 4
  store i32 1, ptr %8, align 4
  br label %47

47:                                               ; preds = %46, %45, %36, %27, %18
  call void @llvm.lifetime.end.p0(i64 8, ptr %7) #12
  call void @llvm.lifetime.end.p0(i64 8, ptr %6) #12
  %48 = load i32, ptr %3, align 4
  ret i32 %48
}